target datalayout = "e-m:e-p270:32:32-p271:32:32-p272:64:64-i64:64-i128:128-f80:128-n8:16:32:64-S128"
target triple = "x86_64-pc-linux-gnu"

%struct.mbedtls_chachapoly_context = type { %struct.mbedtls_chacha20_context, %struct.mbedtls_poly1305_context, i64, i64, i32, i32 }
%struct.mbedtls_chacha20_context = type { [16 x i32], [64 x i8], i64 }
%struct.mbedtls_poly1305_context = type { [4 x i32], [4 x i32], [5 x i32], [16 x i8], i64 }

; Function Attrs: alwaysinline nounwind uwtable
define internal void @mbedtls_put_unaligned_uint64(ptr noundef %0, i64 noundef %1) #4 {
  %3 = alloca ptr, align 8
  %4 = alloca i64, align 8
  store ptr %0, ptr %3, align 8, !tbaa !21
  store i64 %1, ptr %4, align 8, !tbaa !20
  %5 = load ptr, ptr %3, align 8, !tbaa !21
  call void @llvm.memcpy.p0.p0.i64(ptr align 1 %5, ptr align 8 %4, i64 8, i1 false)
  ret void
}

; Function Attrs: nounwind uwtable
define internal i32 @chachapoly_pad_ciphertext(ptr noundef %0) #0 {
  %2 = alloca i32, align 4
  %3 = alloca ptr, align 8
  %4 = alloca i32, align 4
  %5 = alloca [15 x i8], align 1
  %6 = alloca i32, align 4
  store ptr %0, ptr %3, align 8, !tbaa !3
  call void @llvm.lifetime.start.p0(i64 4, ptr %4) #7
  %7 = load ptr, ptr %3, align 8, !tbaa !3
  %8 = getelementptr inbounds nuw %struct.mbedtls_chachapoly_context, ptr %7, i32 0, i32 3
  %9 = load i64, ptr %8, align 8, !tbaa !14
  %10 = urem i64 %9, 16
  %11 = trunc i64 %10 to i32
  store i32 %11, ptr %4, align 4, !tbaa !19
  call void @llvm.lifetime.start.p0(i64 15, ptr %5) #7
  %12 = load i32, ptr %4, align 4, !tbaa !19
  %13 = icmp eq i32 %12, 0
  br i1 %13, label %14, label %15

14:                                               ; preds = %1
  store i32 0, ptr %2, align 4
  store i32 1, ptr %6, align 4
  br label %24

15:                                               ; preds = %1
  %16 = getelementptr inbounds [15 x i8], ptr %5, i64 0, i64 0
  call void @llvm.memset.p0.i64(ptr align 1 %16, i8 0, i64 15, i1 false)
  %17 = load ptr, ptr %3, align 8, !tbaa !3
  %18 = getelementptr inbounds nuw %struct.mbedtls_chachapoly_context, ptr %17, i32 0, i32 1
  %19 = getelementptr inbounds [15 x i8], ptr %5, i64 0, i64 0
  %20 = load i32, ptr %4, align 4, !tbaa !19
  %21 = sub i32 16, %20
  %22 = zext i32 %21 to i64
  %23 = call i32 @mbedtls_poly1305_update(ptr noundef %18, ptr noundef %19, i64 noundef %22)
  store i32 %23, ptr %2, align 4
  store i32 1, ptr %6, align 4
  br label %24

24:                                               ; preds = %15, %14
  call void @llvm.lifetime.end.p0(i64 15, ptr %5) #7
  call void @llvm.lifetime.end.p0(i64 4, ptr %4) #7
  %25 = load i32, ptr %2, align 4
  ret i32 %25
}

; Function Attrs: nounwind uwtable
define internal i32 @chachapoly_pad_aad(ptr noundef %0) #0 {
  %2 = alloca i32, align 4
  %3 = alloca ptr, align 8
  %4 = alloca i32, align 4
  %5 = alloca [15 x i8], align 1
  %6 = alloca i32, align 4
  store ptr %0, ptr %3, align 8, !tbaa !3
  call void @llvm.lifetime.start.p0(i64 4, ptr %4) #7
  %7 = load ptr, ptr %3, align 8, !tbaa !3
  %8 = getelementptr inbounds nuw %struct.mbedtls_chachapoly_context, ptr %7, i32 0, i32 2
  %9 = load i64, ptr %8, align 8, !tbaa !8
  %10 = urem i64 %9, 16
  %11 = trunc i64 %10 to i32
  store i32 %11, ptr %4, align 4, !tbaa !19
  call void @llvm.lifetime.start.p0(i64 15, ptr %5) #7
  %12 = load i32, ptr %4, align 4, !tbaa !19
  %13 = icmp eq i32 %12, 0
  br i1 %13, label %14, label %15

14:                                               ; preds = %1
  store i32 0, ptr %2, align 4
  store i32 1, ptr %6, align 4
  br label %24

15:                                               ; preds = %1
  %16 = getelementptr inbounds [15 x i8], ptr %5, i64 0, i64 0
  call void @llvm.memset.p0.i64(ptr align 1 %16, i8 0, i64 15, i1 false)
  %17 = load ptr, ptr %3, align 8, !tbaa !3
  %18 = getelementptr inbounds nuw %struct.mbedtls_chachapoly_context, ptr %17, i32 0, i32 1
  %19 = getelementptr inbounds [15 x i8], ptr %5, i64 0, i64 0
  %20 = load i32, ptr %4, align 4, !tbaa !19
  %21 = sub i32 16, %20
  %22 = zext i32 %21 to i64
  %23 = call i32 @mbedtls_poly1305_update(ptr noundef %18, ptr noundef %19, i64 noundef %22)
  store i32 %23, ptr %2, align 4
  store i32 1, ptr %6, align 4
  br label %24

24:                                               ; preds = %15, %14
  call void @llvm.lifetime.end.p0(i64 15, ptr %5) #7
  call void @llvm.lifetime.end.p0(i64 4, ptr %4) #7
  %25 = load i32, ptr %2, align 4
  ret i32 %25
}

; Function Attrs: nounwind uwtable
define hidden i32 @mbedtls_chachapoly_finish(ptr noundef %0, ptr noundef %1) #0 {
  %3 = alloca i32, align 4
  %4 = alloca ptr, align 8
  %5 = alloca ptr, align 8
  %6 = alloca i32, align 4
  %7 = alloca [16 x i8], align 16
  %8 = alloca i32, align 4
  store ptr %0, ptr %4, align 8, !tbaa !3
  store ptr %1, ptr %5, align 8, !tbaa !17
  call void @llvm.lifetime.start.p0(i64 4, ptr %6) #7
  store i32 -110, ptr %6, align 4, !tbaa !19
  call void @llvm.lifetime.start.p0(i64 16, ptr %7) #7
  %9 = load ptr, ptr %4, align 8, !tbaa !3
  %10 = getelementptr inbounds nuw %struct.mbedtls_chachapoly_context, ptr %9, i32 0, i32 4
  %11 = load i32, ptr %10, align 8, !tbaa !15
  %12 = icmp eq i32 %11, 0
  br i1 %12, label %13, label %14

13:                                               ; preds = %2
  store i32 -84, ptr %3, align 4
  store i32 1, ptr %8, align 4
  br label %68

14:                                               ; preds = %2
  %15 = load ptr, ptr %4, align 8, !tbaa !3
  %16 = getelementptr inbounds nuw %struct.mbedtls_chachapoly_context, ptr %15, i32 0, i32 4
  %17 = load i32, ptr %16, align 8, !tbaa !15
  %18 = icmp eq i32 %17, 1
  br i1 %18, label %19, label %27

19:                                               ; preds = %14
  %20 = load ptr, ptr %4, align 8, !tbaa !3
  %21 = call i32 @chachapoly_pad_aad(ptr noundef %20)
  store i32 %21, ptr %6, align 4, !tbaa !19
  %22 = load i32, ptr %6, align 4, !tbaa !19
  %23 = icmp ne i32 %22, 0
  br i1 %23, label %24, label %26

24:                                               ; preds = %19
  %25 = load i32, ptr %6, align 4, !tbaa !19
  store i32 %25, ptr %3, align 4
  store i32 1, ptr %8, align 4
  br label %68

26:                                               ; preds = %19
  br label %41

27:                                               ; preds = %14
  %28 = load ptr, ptr %4, align 8, !tbaa !3
  %29 = getelementptr inbounds nuw %struct.mbedtls_chachapoly_context, ptr %28, i32 0, i32 4
  %30 = load i32, ptr %29, align 8, !tbaa !15
  %31 = icmp eq i32 %30, 2
  br i1 %31, label %32, label %40

32:                                               ; preds = %27
  %33 = load ptr, ptr %4, align 8, !tbaa !3
  %34 = call i32 @chachapoly_pad_ciphertext(ptr noundef %33)
  store i32 %34, ptr %6, align 4, !tbaa !19
  %35 = load i32, ptr %6, align 4, !tbaa !19
  %36 = icmp ne i32 %35, 0
  br i1 %36, label %37, label %39

37:                                               ; preds = %32
  %38 = load i32, ptr %6, align 4, !tbaa !19
  store i32 %38, ptr %3, align 4
  store i32 1, ptr %8, align 4
  br label %68

39:                                               ; preds = %32
  br label %40

40:                                               ; preds = %39, %27
  br label %41

41:                                               ; preds = %40, %26
  %42 = load ptr, ptr %4, align 8, !tbaa !3
  %43 = getelementptr inbounds nuw %struct.mbedtls_chachapoly_context, ptr %42, i32 0, i32 4
  store i32 3, ptr %43, align 8, !tbaa !15
  %44 = getelementptr inbounds [16 x i8], ptr %7, i64 0, i64 0
  %45 = getelementptr inbounds i8, ptr %44, i64 0
  %46 = load ptr, ptr %4, align 8, !tbaa !3
  %47 = getelementptr inbounds nuw %struct.mbedtls_chachapoly_context, ptr %46, i32 0, i32 2
  %48 = load i64, ptr %47, align 8, !tbaa !8
  call void @mbedtls_put_unaligned_uint64(ptr noundef %45, i64 noundef %48)
  %49 = getelementptr inbounds [16 x i8], ptr %7, i64 0, i64 0
  %50 = getelementptr inbounds i8, ptr %49, i64 8
  %51 = load ptr, ptr %4, align 8, !tbaa !3
  %52 = getelementptr inbounds nuw %struct.mbedtls_chachapoly_context, ptr %51, i32 0, i32 3
  %53 = load i64, ptr %52, align 8, !tbaa !14
  call void @mbedtls_put_unaligned_uint64(ptr noundef %50, i64 noundef %53)
  %54 = load ptr, ptr %4, align 8, !tbaa !3
  %55 = getelementptr inbounds nuw %struct.mbedtls_chachapoly_context, ptr %54, i32 0, i32 1
  %56 = getelementptr inbounds [16 x i8], ptr %7, i64 0, i64 0
  %57 = call i32 @mbedtls_poly1305_update(ptr noundef %55, ptr noundef %56, i64 noundef 16)
  store i32 %57, ptr %6, align 4, !tbaa !19
  %58 = load i32, ptr %6, align 4, !tbaa !19
  %59 = icmp ne i32 %58, 0
  br i1 %59, label %60, label %62

60:                                               ; preds = %41
  %61 = load i32, ptr %6, align 4, !tbaa !19
  store i32 %61, ptr %3, align 4
  store i32 1, ptr %8, align 4
  br label %68

62:                                               ; preds = %41
  %63 = load ptr, ptr %4, align 8, !tbaa !3
  %64 = getelementptr inbounds nuw %struct.mbedtls_chachapoly_context, ptr %63, i32 0, i32 1
  %65 = load ptr, ptr %5, align 8, !tbaa !17
  %66 = call i32 @mbedtls_poly1305_finish(ptr noundef %64, ptr noundef %65)
  store i32 %66, ptr %6, align 4, !tbaa !19
  %67 = load i32, ptr %6, align 4, !tbaa !19
  store i32 %67, ptr %3, align 4
  store i32 1, ptr %8, align 4
  br label %68

68:                                               ; preds = %62, %60, %37, %24, %13
  call void @llvm.lifetime.end.p0(i64 16, ptr %7) #7
  call void @llvm.lifetime.end.p0(i64 4, ptr %6) #7
  %69 = load i32, ptr %3, align 4
  ret i32 %69
}