; Function Attrs: nounwind uwtable
define hidden i32 @mbedtls_chachapoly_finish(ptr noundef %0, ptr noundef %1) local_unnamed_addr #0 {
  %3 = alloca [15 x i8], align 1
  %4 = alloca [15 x i8], align 1
  %5 = alloca [16 x i8], align 16
  call void @llvm.lifetime.start.p0(i64 16, ptr nonnull %5) #7
  %6 = getelementptr inbounds nuw i8, ptr %0, i64 232
  %7 = load i32, ptr %6, align 8, !tbaa !3
  switch i32 %7, label %28 [
    i32 0, label %38
    i32 1, label %8
    i32 2, label %18
  ]

8:                                                ; preds = %2
  %9 = getelementptr inbounds nuw i8, ptr %0, i64 216
  %10 = load i64, ptr %9, align 8, !tbaa !12
  %11 = trunc i64 %10 to i32
  %12 = and i32 %11, 15
  call void @llvm.lifetime.start.p0(i64 15, ptr nonnull %4) #7
  %13 = icmp eq i32 %12, 0
  br i1 %13, label %chachapoly_pad_aad.exit.thread, label %chachapoly_pad_aad.exit

chachapoly_pad_aad.exit.thread:                   ; preds = %8
  call void @llvm.lifetime.end.p0(i64 15, ptr nonnull %4) #7
  br label %28

chachapoly_pad_aad.exit:                          ; preds = %8
  call void @llvm.memset.p0.i64(ptr noundef nonnull align 1 dereferenceable(15) %4, i8 0, i64 15, i1 false)
  %14 = getelementptr inbounds nuw i8, ptr %0, i64 136
  %15 = sub nuw nsw i32 16, %12
  %16 = zext nneg i32 %15 to i64
  %17 = call i32 @mbedtls_poly1305_update(ptr noundef nonnull %14, ptr noundef nonnull %4, i64 noundef %16) #7
  call void @llvm.lifetime.end.p0(i64 15, ptr nonnull %4) #7
  %.not22 = icmp eq i32 %17, 0
  br i1 %.not22, label %28, label %38

18:                                               ; preds = %2
  %19 = getelementptr inbounds nuw i8, ptr %0, i64 224
  %20 = load i64, ptr %19, align 8, !tbaa !13
  %21 = trunc i64 %20 to i32
  %22 = and i32 %21, 15
  call void @llvm.lifetime.start.p0(i64 15, ptr nonnull %3) #7
  %23 = icmp eq i32 %22, 0
  br i1 %23, label %chachapoly_pad_ciphertext.exit.thread, label %chachapoly_pad_ciphertext.exit

chachapoly_pad_ciphertext.exit.thread:            ; preds = %18
  call void @llvm.lifetime.end.p0(i64 15, ptr nonnull %3) #7
  br label %28

chachapoly_pad_ciphertext.exit:                   ; preds = %18
  call void @llvm.memset.p0.i64(ptr noundef nonnull align 1 dereferenceable(15) %3, i8 0, i64 15, i1 false)
  %24 = getelementptr inbounds nuw i8, ptr %0, i64 136
  %25 = sub nuw nsw i32 16, %22
  %26 = zext nneg i32 %25 to i64
  %27 = call i32 @mbedtls_poly1305_update(ptr noundef nonnull %24, ptr noundef nonnull %3, i64 noundef %26) #7
  call void @llvm.lifetime.end.p0(i64 15, ptr nonnull %3) #7
  %.not = icmp eq i32 %27, 0
  br i1 %.not, label %28, label %38

28:                                               ; preds = %chachapoly_pad_ciphertext.exit.thread, %chachapoly_pad_aad.exit.thread, %2, %chachapoly_pad_ciphertext.exit, %chachapoly_pad_aad.exit
  store i32 3, ptr %6, align 8, !tbaa !3
  %29 = getelementptr inbounds nuw i8, ptr %0, i64 216
  %30 = load i64, ptr %29, align 8, !tbaa !12
  store i64 %30, ptr %5, align 16
  %31 = getelementptr inbounds nuw i8, ptr %5, i64 8
  %32 = getelementptr inbounds nuw i8, ptr %0, i64 224
  %33 = load i64, ptr %32, align 8, !tbaa !13
  store i64 %33, ptr %31, align 8
  %34 = getelementptr inbounds nuw i8, ptr %0, i64 136
  %35 = call i32 @mbedtls_poly1305_update(ptr noundef nonnull %34, ptr noundef nonnull %5, i64 noundef 16) #7
  %.not23 = icmp eq i32 %35, 0
  br i1 %.not23, label %36, label %38

36:                                               ; preds = %28
  %37 = call i32 @mbedtls_poly1305_finish(ptr noundef nonnull %34, ptr noundef %1) #7
  br label %38

38:                                               ; preds = %28, %chachapoly_pad_ciphertext.exit, %2, %chachapoly_pad_aad.exit, %36
  %.0 = phi i32 [ %37, %36 ], [ -84, %2 ], [ %17, %chachapoly_pad_aad.exit ], [ %27, %chachapoly_pad_ciphertext.exit ], [ %35, %28 ]
  call void @llvm.lifetime.end.p0(i64 16, ptr nonnull %5) #7
  ret i32 %.0
}